; Function Attrs: nounwind uwtable
define void @statevec_controlledRotateX(ptr noundef readonly byval(%struct.Qureg) align 8 captures(none) %0, i32 noundef %1, i32 noundef %2, double noundef %3) local_unnamed_addr #11 {
  %5 = fmul double %3, 5.000000e-01
  %6 = tail call double @cos(double noundef %5) #22, !tbaa !4
  %7 = tail call double @sin(double noundef %5) #22, !tbaa !4
  %8 = fmul double %7, -0.000000e+00
  %9 = tail call double @sin(double noundef %5) #22, !tbaa !4
  %10 = fmul double %9, 0.000000e+00
  %11 = tail call double @sin(double noundef %5) #22, !tbaa !4
  %12 = fneg double %11
  tail call void @statevec_controlledCompactUnitary(ptr noundef nonnull byval(%struct.Qureg) align 8 %0, i32 noundef %1, i32 noundef %2, double %6, double %8, double %10, double %12) #22
  ret void
}